target datalayout = "e-m:e-p270:32:32-p271:32:32-p272:64:64-i64:64-i128:128-f80:128-n8:16:32:64-S128"
target triple = "x86_64-pc-linux-gnu"

%"class.icu_77::TimeUnitFormat" = type <{ %"class.icu_77::MeasureFormat", [7 x ptr], i32, [4 x i8] }>
%"class.icu_77::MeasureFormat" = type { %"class.icu_77::Format", ptr, ptr, ptr, i32, ptr }
%"class.icu_77::Format" = type { %"class.icu_77::UObject", ptr, ptr }
%"class.icu_77::UObject" = type { ptr }

; Function Attrs: mustprogress nounwind uwtable
define void @_ZN6icu_7714TimeUnitFormatD2Ev(ptr noundef nonnull align 8 dereferenceable(124) %0) unnamed_addr #0 align 2 personality ptr @__gxx_personality_v0 {
  %2 = alloca ptr, align 8
  %3 = alloca i32, align 4
  store ptr %0, ptr %2, align 8, !tbaa !23
  %4 = load ptr, ptr %2, align 8
  store ptr getelementptr inbounds inrange(-16, 64) ({ [10 x ptr] }, ptr @_ZTVN6icu_7714TimeUnitFormatE, i32 0, i32 0, i32 2), ptr %4, align 8, !tbaa !25
  call void @llvm.lifetime.start.p0(i64 4, ptr %3) #11
  store i32 0, ptr %3, align 4, !tbaa !29
  br label %5

5:                                                ; preds = %20, %1
  %6 = load i32, ptr %3, align 4, !tbaa !29
  %7 = icmp slt i32 %6, 7
  br i1 %7, label %9, label %8

8:                                                ; preds = %5
  call void @llvm.lifetime.end.p0(i64 4, ptr %3) #11
  br label %23

9:                                                ; preds = %5
  %10 = getelementptr inbounds nuw %"class.icu_77::TimeUnitFormat", ptr %4, i32 0, i32 1
  %11 = load i32, ptr %3, align 4, !tbaa !29
  %12 = zext i32 %11 to i64
  %13 = getelementptr inbounds nuw [7 x ptr], ptr %10, i64 0, i64 %12
  %14 = load ptr, ptr %13, align 8, !tbaa !31
  invoke void @_ZN6icu_7714TimeUnitFormat10deleteHashEPNS_9HashtableE(ptr noundef nonnull align 8 dereferenceable(124) %4, ptr noundef %14)
          to label %15 unwind label %24

15:                                               ; preds = %9
  %16 = getelementptr inbounds nuw %"class.icu_77::TimeUnitFormat", ptr %4, i32 0, i32 1
  %17 = load i32, ptr %3, align 4, !tbaa !29
  %18 = zext i32 %17 to i64
  %19 = getelementptr inbounds nuw [7 x ptr], ptr %16, i64 0, i64 %18
  store ptr null, ptr %19, align 8, !tbaa !31
  br label %20

20:                                               ; preds = %15
  %21 = load i32, ptr %3, align 4, !tbaa !29
  %22 = add nsw i32 %21, 1
  store i32 %22, ptr %3, align 4, !tbaa !29
  br label %5, !llvm.loop !66

23:                                               ; preds = %8
  call void @_ZN6icu_7713MeasureFormatD2Ev(ptr noundef nonnull align 8 dereferenceable(64) %4) #11
  ret void

24:                                               ; preds = %9
  %25 = landingpad { ptr, i32 }
          catch ptr null
  %26 = extractvalue { ptr, i32 } %25, 0
  call void @__clang_call_terminate(ptr %26) #13
  unreachable
}