; Function Attrs: mustprogress nounwind uwtable
define void @_ZN6icu_7714TimeUnitFormatD2Ev(ptr noundef nonnull align 8 dereferenceable(124) initializes((0, 8)) %0) unnamed_addr #0 align 2 personality ptr @__gxx_personality_v0 {
  store ptr getelementptr inbounds nuw inrange(-16, 64) (i8, ptr @_ZTVN6icu_7714TimeUnitFormatE, i64 16), ptr %0, align 8, !tbaa !15
  %2 = getelementptr inbounds nuw i8, ptr %0, i64 64
  br label %4

3:                                                ; preds = %7
  tail call void @_ZN6icu_7713MeasureFormatD2Ev(ptr noundef nonnull align 8 dereferenceable(64) %0) #16
  ret void

4:                                                ; preds = %1, %7
  %indvars.iv = phi i64 [ 0, %1 ], [ %indvars.iv.next, %7 ]
  %5 = getelementptr inbounds nuw [7 x ptr], ptr %2, i64 0, i64 %indvars.iv
  %6 = load ptr, ptr %5, align 8, !tbaa !17
  invoke void @_ZN6icu_7714TimeUnitFormat10deleteHashEPNS_9HashtableE(ptr nonnull align 8 poison, ptr noundef %6)
          to label %7 unwind label %8

7:                                                ; preds = %4
  store ptr null, ptr %5, align 8, !tbaa !17
  %indvars.iv.next = add nuw nsw i64 %indvars.iv, 1
  %exitcond.not = icmp eq i64 %indvars.iv.next, 7
  br i1 %exitcond.not, label %3, label %4, !llvm.loop !43

8:                                                ; preds = %4
  %9 = landingpad { ptr, i32 }
          catch ptr null
  %10 = extractvalue { ptr, i32 } %9, 0
  tail call void @__clang_call_terminate(ptr %10) #18
  unreachable
}